(dp1
S'rangeid'
p2
I125
sS'prevwidth'
p3
I806
sS'range_interval'
p4
(dp5
I40
I01
ssS'interval'
p6
I00
sS'range'
p7
(dp8
I32
(lp9
I250
asI123
(lp10
I806
asI40
(lp11
I792
aI792
asI47
(lp12
I1278
asI91
(lp13
I583
aI1278
aI583
asI125
(lp14
I806
assS'prevcid'
p15
I125
s.